
_buzzer:

;incubadora_iot.c,52 :: 		void buzzer(unsigned int millis,unsigned int repeticiones){
;incubadora_iot.c,53 :: 		unsigned int i=0;
	CLRF       buzzer_i_L0+0
	CLRF       buzzer_i_L0+1
	CLRF       buzzer_u_L0+0
	CLRF       buzzer_u_L0+1
;incubadora_iot.c,55 :: 		for(u=0;u<repeticiones;u++){
	CLRF       buzzer_u_L0+0
	CLRF       buzzer_u_L0+1
L_buzzer0:
	MOVF       FARG_buzzer_repeticiones+1, 0
	SUBWF      buzzer_u_L0+1, 0
	BTFSS      STATUS+0, 2
	GOTO       L__buzzer56
	MOVF       FARG_buzzer_repeticiones+0, 0
	SUBWF      buzzer_u_L0+0, 0
L__buzzer56:
	BTFSC      STATUS+0, 0
	GOTO       L_buzzer1
;incubadora_iot.c,56 :: 		PIN_BUZZER=1;
	BSF        RA0_bit+0, BitPos(RA0_bit+0)
;incubadora_iot.c,57 :: 		for(i=0;i<millis;i++){
	CLRF       buzzer_i_L0+0
	CLRF       buzzer_i_L0+1
L_buzzer3:
	MOVF       FARG_buzzer_millis+1, 0
	SUBWF      buzzer_i_L0+1, 0
	BTFSS      STATUS+0, 2
	GOTO       L__buzzer57
	MOVF       FARG_buzzer_millis+0, 0
	SUBWF      buzzer_i_L0+0, 0
L__buzzer57:
	BTFSC      STATUS+0, 0
	GOTO       L_buzzer4
;incubadora_iot.c,58 :: 		Delay_ms(1);
	MOVLW      2
	MOVWF      R12+0
	MOVLW      75
	MOVWF      R13+0
L_buzzer6:
	DECFSZ     R13+0, 1
	GOTO       L_buzzer6
	DECFSZ     R12+0, 1
	GOTO       L_buzzer6
;incubadora_iot.c,57 :: 		for(i=0;i<millis;i++){
	INCF       buzzer_i_L0+0, 1
	BTFSC      STATUS+0, 2
	INCF       buzzer_i_L0+1, 1
;incubadora_iot.c,59 :: 		}
	GOTO       L_buzzer3
L_buzzer4:
;incubadora_iot.c,60 :: 		PIN_BUZZER=0;
	BCF        RA0_bit+0, BitPos(RA0_bit+0)
;incubadora_iot.c,61 :: 		for(i=0;i<millis;i++){
	CLRF       buzzer_i_L0+0
	CLRF       buzzer_i_L0+1
L_buzzer7:
	MOVF       FARG_buzzer_millis+1, 0
	SUBWF      buzzer_i_L0+1, 0
	BTFSS      STATUS+0, 2
	GOTO       L__buzzer58
	MOVF       FARG_buzzer_millis+0, 0
	SUBWF      buzzer_i_L0+0, 0
L__buzzer58:
	BTFSC      STATUS+0, 0
	GOTO       L_buzzer8
	INCF       buzzer_i_L0+0, 1
	BTFSC      STATUS+0, 2
	INCF       buzzer_i_L0+1, 1
;incubadora_iot.c,62 :: 		}
	GOTO       L_buzzer7
L_buzzer8:
;incubadora_iot.c,55 :: 		for(u=0;u<repeticiones;u++){
	INCF       buzzer_u_L0+0, 1
	BTFSC      STATUS+0, 2
	INCF       buzzer_u_L0+1, 1
;incubadora_iot.c,63 :: 		}
	GOTO       L_buzzer0
L_buzzer1:
;incubadora_iot.c,64 :: 		}//fin buzzer
L_end_buzzer:
	RETURN
; end of _buzzer

_read_dth11:

;incubadora_iot.c,66 :: 		char read_dth11(unsigned char sensor){            //funcion para realizar la lectura del sensor dht11
;incubadora_iot.c,68 :: 		unsigned char i=0;
	CLRF       read_dth11_i_L0+0
	CLRF       read_dth11_j_L0+0
	CLRF       read_dth11_hum_L0+0
	CLRF       read_dth11_hum_L0+1
	CLRF       read_dth11_temp_L0+0
	CLRF       read_dth11_temp_L0+1
	MOVLW      10
	MOVWF      read_dth11_base_L0+0
	MOVLW      0
	MOVWF      read_dth11_base_L0+1
;incubadora_iot.c,75 :: 		temperatura=0;
	CLRF       _temperatura+0
;incubadora_iot.c,76 :: 		humedad=0;
	CLRF       _humedad+0
;incubadora_iot.c,80 :: 		PIN_SENSOR_Direction=0;  //rb0 de salida
	BCF        TRISD0_bit+0, BitPos(TRISD0_bit+0)
;incubadora_iot.c,81 :: 		PIN_SENSOR=1;  //rb0 en alto
	BSF        RD0_bit+0, BitPos(RD0_bit+0)
;incubadora_iot.c,82 :: 		delay_us(20);
	MOVLW      6
	MOVWF      R13+0
L_read_dth1112:
	DECFSZ     R13+0, 1
	GOTO       L_read_dth1112
	NOP
;incubadora_iot.c,83 :: 		PIN_SENSOR=0;     //rbo en bajo
	BCF        RD0_bit+0, BitPos(RD0_bit+0)
;incubadora_iot.c,84 :: 		delay_ms(18);
	MOVLW      24
	MOVWF      R12+0
	MOVLW      95
	MOVWF      R13+0
L_read_dth1113:
	DECFSZ     R13+0, 1
	GOTO       L_read_dth1113
	DECFSZ     R12+0, 1
	GOTO       L_read_dth1113
;incubadora_iot.c,85 :: 		PIN_SENSOR=1;     //rbo en alto
	BSF        RD0_bit+0, BitPos(RD0_bit+0)
;incubadora_iot.c,86 :: 		delay_us(22);
	MOVLW      7
	MOVWF      R13+0
L_read_dth1114:
	DECFSZ     R13+0, 1
	GOTO       L_read_dth1114
;incubadora_iot.c,87 :: 		PIN_SENSOR_Direction=1; //rbo como entrada para leer la respuesta del sensor
	BSF        TRISD0_bit+0, BitPos(TRISD0_bit+0)
;incubadora_iot.c,88 :: 		delay_us(10);
	MOVLW      3
	MOVWF      R13+0
L_read_dth1115:
	DECFSZ     R13+0, 1
	GOTO       L_read_dth1115
;incubadora_iot.c,89 :: 		if(PIN_SENSOR){return -1;}    //comprueba si el sensor envio un estado bajo
	BTFSS      RD0_bit+0, BitPos(RD0_bit+0)
	GOTO       L_read_dth1116
	MOVLW      255
	MOVWF      R0+0
	GOTO       L_end_read_dth11
L_read_dth1116:
;incubadora_iot.c,90 :: 		delay_us(80);
	MOVLW      26
	MOVWF      R13+0
L_read_dth1117:
	DECFSZ     R13+0, 1
	GOTO       L_read_dth1117
	NOP
;incubadora_iot.c,91 :: 		if(PIN_SENSOR==0){return -1;}      //comprueba si el sensor envio un estado alto despues de 80ms
	BTFSC      RD0_bit+0, BitPos(RD0_bit+0)
	GOTO       L_read_dth1118
	MOVLW      255
	MOVWF      R0+0
	GOTO       L_end_read_dth11
L_read_dth1118:
;incubadora_iot.c,92 :: 		delay_us(80);
	MOVLW      26
	MOVWF      R13+0
L_read_dth1119:
	DECFSZ     R13+0, 1
	GOTO       L_read_dth1119
	NOP
;incubadora_iot.c,94 :: 		for(i=0;i<5;i++){
	CLRF       read_dth11_i_L0+0
L_read_dth1120:
	MOVLW      5
	SUBWF      read_dth11_i_L0+0, 0
	BTFSC      STATUS+0, 0
	GOTO       L_read_dth1121
;incubadora_iot.c,95 :: 		for(j=0;j<8;j++){
	CLRF       read_dth11_j_L0+0
L_read_dth1123:
	MOVLW      8
	SUBWF      read_dth11_j_L0+0, 0
	BTFSC      STATUS+0, 0
	GOTO       L_read_dth1124
;incubadora_iot.c,96 :: 		while(PIN_SENSOR==0);   //espera a que la entrada sea distinta de 0
L_read_dth1126:
	BTFSC      RD0_bit+0, BitPos(RD0_bit+0)
	GOTO       L_read_dth1127
	GOTO       L_read_dth1126
L_read_dth1127:
;incubadora_iot.c,97 :: 		delay_us(30);     //espera 30 us
	MOVLW      9
	MOVWF      R13+0
L_read_dth1128:
	DECFSZ     R13+0, 1
	GOTO       L_read_dth1128
	NOP
	NOP
;incubadora_iot.c,98 :: 		if(PIN_SENSOR){    // si el pulso despues de 30us esta en alto es porque es un 1
	BTFSS      RD0_bit+0, BitPos(RD0_bit+0)
	GOTO       L_read_dth1129
;incubadora_iot.c,99 :: 		dato[i]=(dato[i]<<1) | 0x01;   // se le agrega un 1 al bit
	MOVF       read_dth11_i_L0+0, 0
	ADDLW      read_dth11_dato_L0+0
	MOVWF      R3+0
	MOVF       R3+0, 0
	MOVWF      FSR
	MOVF       INDF+0, 0
	MOVWF      R2+0
	MOVF       R2+0, 0
	MOVWF      R0+0
	RLF        R0+0, 1
	BCF        R0+0, 0
	BSF        R0+0, 0
	MOVF       R3+0, 0
	MOVWF      FSR
	MOVF       R0+0, 0
	MOVWF      INDF+0
;incubadora_iot.c,100 :: 		}
L_read_dth1129:
;incubadora_iot.c,101 :: 		if(PIN_SENSOR==0){       // si el pulso despues de 30us esta en bajo es porque es un 0
	BTFSC      RD0_bit+0, BitPos(RD0_bit+0)
	GOTO       L_read_dth1130
;incubadora_iot.c,102 :: 		dato[i]=(dato[i]<<1);}  // se le agrega un 0 corriendo a la izquierda            }
	MOVF       read_dth11_i_L0+0, 0
	ADDLW      read_dth11_dato_L0+0
	MOVWF      R3+0
	MOVF       R3+0, 0
	MOVWF      FSR
	MOVF       INDF+0, 0
	MOVWF      R2+0
	MOVF       R2+0, 0
	MOVWF      R0+0
	RLF        R0+0, 1
	BCF        R0+0, 0
	MOVF       R3+0, 0
	MOVWF      FSR
	MOVF       R0+0, 0
	MOVWF      INDF+0
L_read_dth1130:
;incubadora_iot.c,103 :: 		while(PIN_SENSOR==1);
L_read_dth1131:
	BTFSS      RD0_bit+0, BitPos(RD0_bit+0)
	GOTO       L_read_dth1132
	GOTO       L_read_dth1131
L_read_dth1132:
;incubadora_iot.c,95 :: 		for(j=0;j<8;j++){
	INCF       read_dth11_j_L0+0, 1
;incubadora_iot.c,104 :: 		}//fin for de 8
	GOTO       L_read_dth1123
L_read_dth1124:
;incubadora_iot.c,94 :: 		for(i=0;i<5;i++){
	INCF       read_dth11_i_L0+0, 1
;incubadora_iot.c,105 :: 		}// fin for de 5
	GOTO       L_read_dth1120
L_read_dth1121:
;incubadora_iot.c,106 :: 		PIN_SENSOR_Direction=0;    //rb0 de salida
	BCF        TRISD0_bit+0, BitPos(TRISD0_bit+0)
;incubadora_iot.c,107 :: 		PIN_SENSOR=1;     //rb0  en alto
	BSF        RD0_bit+0, BitPos(RD0_bit+0)
;incubadora_iot.c,109 :: 		if((dato[0]+dato[1]+dato[2]+dato[3])==dato[4]){
	MOVF       read_dth11_dato_L0+1, 0
	ADDWF      read_dth11_dato_L0+0, 0
	MOVWF      R0+0
	CLRF       R0+1
	BTFSC      STATUS+0, 0
	INCF       R0+1, 1
	MOVF       read_dth11_dato_L0+2, 0
	ADDWF      R0+0, 1
	BTFSC      STATUS+0, 0
	INCF       R0+1, 1
	MOVF       read_dth11_dato_L0+3, 0
	ADDWF      R0+0, 0
	MOVWF      R2+0
	MOVF       R0+1, 0
	BTFSC      STATUS+0, 0
	ADDLW      1
	MOVWF      R2+1
	MOVLW      0
	XORWF      R2+1, 0
	BTFSS      STATUS+0, 2
	GOTO       L__read_dth1160
	MOVF       read_dth11_dato_L0+4, 0
	XORWF      R2+0, 0
L__read_dth1160:
	BTFSS      STATUS+0, 2
	GOTO       L_read_dth1133
;incubadora_iot.c,110 :: 		hum=dato[0];
	MOVF       read_dth11_dato_L0+0, 0
	MOVWF      read_dth11_hum_L0+0
	CLRF       read_dth11_hum_L0+1
;incubadora_iot.c,111 :: 		temp=dato[2];
	MOVF       read_dth11_dato_L0+2, 0
	MOVWF      read_dth11_temp_L0+0
	CLRF       read_dth11_temp_L0+1
;incubadora_iot.c,113 :: 		base=10;
	MOVLW      10
	MOVWF      read_dth11_base_L0+0
	MOVLW      0
	MOVWF      read_dth11_base_L0+1
;incubadora_iot.c,114 :: 		for(i=0;i<2;i++){
	CLRF       read_dth11_i_L0+0
L_read_dth1134:
	MOVLW      2
	SUBWF      read_dth11_i_L0+0, 0
	BTFSC      STATUS+0, 0
	GOTO       L_read_dth1135
;incubadora_iot.c,115 :: 		valor[i]=(hum/base);
	MOVF       read_dth11_i_L0+0, 0
	ADDLW      read_dth11_valor_L0+0
	MOVWF      FLOC__read_dth11+0
	MOVF       read_dth11_base_L0+0, 0
	MOVWF      R4+0
	MOVF       read_dth11_base_L0+1, 0
	MOVWF      R4+1
	MOVF       read_dth11_hum_L0+0, 0
	MOVWF      R0+0
	MOVF       read_dth11_hum_L0+1, 0
	MOVWF      R0+1
	CALL       _Div_16X16_U+0
	MOVF       FLOC__read_dth11+0, 0
	MOVWF      FSR
	MOVF       R0+0, 0
	MOVWF      INDF+0
;incubadora_iot.c,116 :: 		hum=hum-(valor[i]*base);
	MOVF       read_dth11_i_L0+0, 0
	ADDLW      read_dth11_valor_L0+0
	MOVWF      FSR
	MOVF       INDF+0, 0
	MOVWF      R0+0
	MOVLW      0
	MOVWF      R0+1
	MOVF       read_dth11_base_L0+0, 0
	MOVWF      R4+0
	MOVF       read_dth11_base_L0+1, 0
	MOVWF      R4+1
	CALL       _Mul_16X16_U+0
	MOVF       R0+0, 0
	SUBWF      read_dth11_hum_L0+0, 1
	BTFSS      STATUS+0, 0
	DECF       read_dth11_hum_L0+1, 1
	MOVF       R0+1, 0
	SUBWF      read_dth11_hum_L0+1, 1
;incubadora_iot.c,117 :: 		base=base/10;
	MOVLW      10
	MOVWF      R4+0
	MOVLW      0
	MOVWF      R4+1
	MOVF       read_dth11_base_L0+0, 0
	MOVWF      R0+0
	MOVF       read_dth11_base_L0+1, 0
	MOVWF      R0+1
	CALL       _Div_16X16_U+0
	MOVF       R0+0, 0
	MOVWF      read_dth11_base_L0+0
	MOVF       R0+1, 0
	MOVWF      read_dth11_base_L0+1
;incubadora_iot.c,114 :: 		for(i=0;i<2;i++){
	INCF       read_dth11_i_L0+0, 1
;incubadora_iot.c,118 :: 		}
	GOTO       L_read_dth1134
L_read_dth1135:
;incubadora_iot.c,119 :: 		base=10;
	MOVLW      10
	MOVWF      read_dth11_base_L0+0
	MOVLW      0
	MOVWF      read_dth11_base_L0+1
;incubadora_iot.c,120 :: 		for(i=2;i<4;i++){
	MOVLW      2
	MOVWF      read_dth11_i_L0+0
L_read_dth1137:
	MOVLW      4
	SUBWF      read_dth11_i_L0+0, 0
	BTFSC      STATUS+0, 0
	GOTO       L_read_dth1138
;incubadora_iot.c,121 :: 		valor[i]=(temp/base);
	MOVF       read_dth11_i_L0+0, 0
	ADDLW      read_dth11_valor_L0+0
	MOVWF      FLOC__read_dth11+0
	MOVF       read_dth11_base_L0+0, 0
	MOVWF      R4+0
	MOVF       read_dth11_base_L0+1, 0
	MOVWF      R4+1
	MOVF       read_dth11_temp_L0+0, 0
	MOVWF      R0+0
	MOVF       read_dth11_temp_L0+1, 0
	MOVWF      R0+1
	CALL       _Div_16X16_U+0
	MOVF       FLOC__read_dth11+0, 0
	MOVWF      FSR
	MOVF       R0+0, 0
	MOVWF      INDF+0
;incubadora_iot.c,122 :: 		temp=temp-(valor[i]*base);
	MOVF       read_dth11_i_L0+0, 0
	ADDLW      read_dth11_valor_L0+0
	MOVWF      FSR
	MOVF       INDF+0, 0
	MOVWF      R0+0
	MOVLW      0
	MOVWF      R0+1
	MOVF       read_dth11_base_L0+0, 0
	MOVWF      R4+0
	MOVF       read_dth11_base_L0+1, 0
	MOVWF      R4+1
	CALL       _Mul_16X16_U+0
	MOVF       R0+0, 0
	SUBWF      read_dth11_temp_L0+0, 1
	BTFSS      STATUS+0, 0
	DECF       read_dth11_temp_L0+1, 1
	MOVF       R0+1, 0
	SUBWF      read_dth11_temp_L0+1, 1
;incubadora_iot.c,123 :: 		base=base/10;
	MOVLW      10
	MOVWF      R4+0
	MOVLW      0
	MOVWF      R4+1
	MOVF       read_dth11_base_L0+0, 0
	MOVWF      R0+0
	MOVF       read_dth11_base_L0+1, 0
	MOVWF      R0+1
	CALL       _Div_16X16_U+0
	MOVF       R0+0, 0
	MOVWF      read_dth11_base_L0+0
	MOVF       R0+1, 0
	MOVWF      read_dth11_base_L0+1
;incubadora_iot.c,120 :: 		for(i=2;i<4;i++){
	INCF       read_dth11_i_L0+0, 1
;incubadora_iot.c,124 :: 		}
	GOTO       L_read_dth1137
L_read_dth1138:
;incubadora_iot.c,126 :: 		temperatura=(valor[2]*10)+valor[3];
	MOVF       read_dth11_valor_L0+2, 0
	MOVWF      R0+0
	MOVLW      10
	MOVWF      R4+0
	CALL       _Mul_8X8_U+0
	MOVF       read_dth11_valor_L0+3, 0
	ADDWF      R0+0, 0
	MOVWF      _temperatura+0
;incubadora_iot.c,127 :: 		humedad=(valor[0]*10)+valor[1];
	MOVF       read_dth11_valor_L0+0, 0
	MOVWF      R0+0
	MOVLW      10
	MOVWF      R4+0
	CALL       _Mul_8X8_U+0
	MOVF       read_dth11_valor_L0+1, 0
	ADDWF      R0+0, 0
	MOVWF      _humedad+0
;incubadora_iot.c,128 :: 		return 1;
	MOVLW      1
	MOVWF      R0+0
	GOTO       L_end_read_dth11
;incubadora_iot.c,130 :: 		}else{return -1;}
L_read_dth1133:
	MOVLW      255
	MOVWF      R0+0
;incubadora_iot.c,132 :: 		}//fin read_dht
L_end_read_dth11:
	RETURN
; end of _read_dth11

_lcd_Print:

;incubadora_iot.c,135 :: 		void lcd_Print(unsigned char screen){             //funcion para imprimir las diferentes pantallas en la lcd16x2
;incubadora_iot.c,137 :: 		Lcd_Cmd(_LCD_CLEAR);
	MOVLW      1
	MOVWF      FARG_Lcd_Cmd_out_char+0
	CALL       _Lcd_Cmd+0
;incubadora_iot.c,138 :: 		Lcd_Cmd(_LCD_CURSOR_OFF);
	MOVLW      12
	MOVWF      FARG_Lcd_Cmd_out_char+0
	CALL       _Lcd_Cmd+0
;incubadora_iot.c,140 :: 		switch(screen){
	GOTO       L_lcd_Print41
;incubadora_iot.c,142 :: 		case 'I':
L_lcd_Print43:
;incubadora_iot.c,143 :: 		ByteToStr(temperatura,txtInt);
	MOVF       _temperatura+0, 0
	MOVWF      FARG_ByteToStr_input+0
	MOVLW      lcd_Print_txtInt_L0+0
	MOVWF      FARG_ByteToStr_output+0
	CALL       _ByteToStr+0
;incubadora_iot.c,144 :: 		Lcd_Out(1,13,txtInt);
	MOVLW      1
	MOVWF      FARG_Lcd_Out_row+0
	MOVLW      13
	MOVWF      FARG_Lcd_Out_column+0
	MOVLW      lcd_Print_txtInt_L0+0
	MOVWF      FARG_Lcd_Out_text+0
	CALL       _Lcd_Out+0
;incubadora_iot.c,145 :: 		ByteToStr(humedad,txtInt);
	MOVF       _humedad+0, 0
	MOVWF      FARG_ByteToStr_input+0
	MOVLW      lcd_Print_txtInt_L0+0
	MOVWF      FARG_ByteToStr_output+0
	CALL       _ByteToStr+0
;incubadora_iot.c,146 :: 		Lcd_Out(2,13,txtInt);
	MOVLW      2
	MOVWF      FARG_Lcd_Out_row+0
	MOVLW      13
	MOVWF      FARG_Lcd_Out_column+0
	MOVLW      lcd_Print_txtInt_L0+0
	MOVWF      FARG_Lcd_Out_text+0
	CALL       _Lcd_Out+0
;incubadora_iot.c,147 :: 		Lcd_Out(1,1,"TEMPERATURA:");
	MOVLW      1
	MOVWF      FARG_Lcd_Out_row+0
	MOVLW      1
	MOVWF      FARG_Lcd_Out_column+0
	MOVLW      ?lstr1_incubadora_iot+0
	MOVWF      FARG_Lcd_Out_text+0
	CALL       _Lcd_Out+0
;incubadora_iot.c,148 :: 		Lcd_Out(2,1,"HUMEDAD:");
	MOVLW      2
	MOVWF      FARG_Lcd_Out_row+0
	MOVLW      1
	MOVWF      FARG_Lcd_Out_column+0
	MOVLW      ?lstr2_incubadora_iot+0
	MOVWF      FARG_Lcd_Out_text+0
	CALL       _Lcd_Out+0
;incubadora_iot.c,149 :: 		Lcd_Out(1,16,"C");
	MOVLW      1
	MOVWF      FARG_Lcd_Out_row+0
	MOVLW      16
	MOVWF      FARG_Lcd_Out_column+0
	MOVLW      ?lstr3_incubadora_iot+0
	MOVWF      FARG_Lcd_Out_text+0
	CALL       _Lcd_Out+0
;incubadora_iot.c,150 :: 		Lcd_Out(2,16,"%");
	MOVLW      2
	MOVWF      FARG_Lcd_Out_row+0
	MOVLW      16
	MOVWF      FARG_Lcd_Out_column+0
	MOVLW      ?lstr4_incubadora_iot+0
	MOVWF      FARG_Lcd_Out_text+0
	CALL       _Lcd_Out+0
;incubadora_iot.c,151 :: 		break;
	GOTO       L_lcd_Print42
;incubadora_iot.c,153 :: 		case 'E': Lcd_Out(1,7,"[X]");
L_lcd_Print44:
	MOVLW      1
	MOVWF      FARG_Lcd_Out_row+0
	MOVLW      7
	MOVWF      FARG_Lcd_Out_column+0
	MOVLW      ?lstr5_incubadora_iot+0
	MOVWF      FARG_Lcd_Out_text+0
	CALL       _Lcd_Out+0
;incubadora_iot.c,154 :: 		Lcd_Out(2,2,"ERROR EN DHT11");
	MOVLW      2
	MOVWF      FARG_Lcd_Out_row+0
	MOVLW      2
	MOVWF      FARG_Lcd_Out_column+0
	MOVLW      ?lstr6_incubadora_iot+0
	MOVWF      FARG_Lcd_Out_text+0
	CALL       _Lcd_Out+0
;incubadora_iot.c,155 :: 		break;
	GOTO       L_lcd_Print42
;incubadora_iot.c,157 :: 		case 'C': Lcd_Out(1,3,"CONFIGURACION");
L_lcd_Print45:
	MOVLW      1
	MOVWF      FARG_Lcd_Out_row+0
	MOVLW      3
	MOVWF      FARG_Lcd_Out_column+0
	MOVLW      ?lstr7_incubadora_iot+0
	MOVWF      FARG_Lcd_Out_text+0
	CALL       _Lcd_Out+0
;incubadora_iot.c,158 :: 		break;
	GOTO       L_lcd_Print42
;incubadora_iot.c,160 :: 		case 'T': Lcd_Out(1,3,"-TEMPERATURA-");
L_lcd_Print46:
	MOVLW      1
	MOVWF      FARG_Lcd_Out_row+0
	MOVLW      3
	MOVWF      FARG_Lcd_Out_column+0
	MOVLW      ?lstr8_incubadora_iot+0
	MOVWF      FARG_Lcd_Out_text+0
	CALL       _Lcd_Out+0
;incubadora_iot.c,161 :: 		Lcd_Out(2,1,"<>");
	MOVLW      2
	MOVWF      FARG_Lcd_Out_row+0
	MOVLW      1
	MOVWF      FARG_Lcd_Out_column+0
	MOVLW      ?lstr9_incubadora_iot+0
	MOVWF      FARG_Lcd_Out_text+0
	CALL       _Lcd_Out+0
;incubadora_iot.c,162 :: 		Lcd_Out(2,16,"C");
	MOVLW      2
	MOVWF      FARG_Lcd_Out_row+0
	MOVLW      16
	MOVWF      FARG_Lcd_Out_column+0
	MOVLW      ?lstr10_incubadora_iot+0
	MOVWF      FARG_Lcd_Out_text+0
	CALL       _Lcd_Out+0
;incubadora_iot.c,163 :: 		ByteToStr(stpointT,txtInt);
	MOVF       _stpointT+0, 0
	MOVWF      FARG_ByteToStr_input+0
	MOVLW      lcd_Print_txtInt_L0+0
	MOVWF      FARG_ByteToStr_output+0
	CALL       _ByteToStr+0
;incubadora_iot.c,164 :: 		Lcd_Out(2,13,txtInt);
	MOVLW      2
	MOVWF      FARG_Lcd_Out_row+0
	MOVLW      13
	MOVWF      FARG_Lcd_Out_column+0
	MOVLW      lcd_Print_txtInt_L0+0
	MOVWF      FARG_Lcd_Out_text+0
	CALL       _Lcd_Out+0
;incubadora_iot.c,165 :: 		break;
	GOTO       L_lcd_Print42
;incubadora_iot.c,167 :: 		case 'H': Lcd_Out(1,4,"-HUMEDAD-");
L_lcd_Print47:
	MOVLW      1
	MOVWF      FARG_Lcd_Out_row+0
	MOVLW      4
	MOVWF      FARG_Lcd_Out_column+0
	MOVLW      ?lstr11_incubadora_iot+0
	MOVWF      FARG_Lcd_Out_text+0
	CALL       _Lcd_Out+0
;incubadora_iot.c,168 :: 		Lcd_Out(2,1,"<>");
	MOVLW      2
	MOVWF      FARG_Lcd_Out_row+0
	MOVLW      1
	MOVWF      FARG_Lcd_Out_column+0
	MOVLW      ?lstr12_incubadora_iot+0
	MOVWF      FARG_Lcd_Out_text+0
	CALL       _Lcd_Out+0
;incubadora_iot.c,169 :: 		Lcd_Out(2,16,"%");
	MOVLW      2
	MOVWF      FARG_Lcd_Out_row+0
	MOVLW      16
	MOVWF      FARG_Lcd_Out_column+0
	MOVLW      ?lstr13_incubadora_iot+0
	MOVWF      FARG_Lcd_Out_text+0
	CALL       _Lcd_Out+0
;incubadora_iot.c,170 :: 		ByteToStr(stpointH,txtInt);
	MOVF       _stpointH+0, 0
	MOVWF      FARG_ByteToStr_input+0
	MOVLW      lcd_Print_txtInt_L0+0
	MOVWF      FARG_ByteToStr_output+0
	CALL       _ByteToStr+0
;incubadora_iot.c,171 :: 		Lcd_Out(2,13,txtInt);
	MOVLW      2
	MOVWF      FARG_Lcd_Out_row+0
	MOVLW      13
	MOVWF      FARG_Lcd_Out_column+0
	MOVLW      lcd_Print_txtInt_L0+0
	MOVWF      FARG_Lcd_Out_text+0
	CALL       _Lcd_Out+0
;incubadora_iot.c,172 :: 		break;
	GOTO       L_lcd_Print42
;incubadora_iot.c,174 :: 		case 'X': Lcd_Out(1,7,"");
L_lcd_Print48:
	MOVLW      1
	MOVWF      FARG_Lcd_Out_row+0
	MOVLW      7
	MOVWF      FARG_Lcd_Out_column+0
	MOVLW      ?lstr14_incubadora_iot+0
	MOVWF      FARG_Lcd_Out_text+0
	CALL       _Lcd_Out+0
;incubadora_iot.c,175 :: 		Lcd_Out(2,2,"ERROR EN DHT11");
	MOVLW      2
	MOVWF      FARG_Lcd_Out_row+0
	MOVLW      2
	MOVWF      FARG_Lcd_Out_column+0
	MOVLW      ?lstr15_incubadora_iot+0
	MOVWF      FARG_Lcd_Out_text+0
	CALL       _Lcd_Out+0
;incubadora_iot.c,176 :: 		break;
	GOTO       L_lcd_Print42
;incubadora_iot.c,178 :: 		default:  Lcd_Out(1,7,"NULL");
L_lcd_Print49:
	MOVLW      1
	MOVWF      FARG_Lcd_Out_row+0
	MOVLW      7
	MOVWF      FARG_Lcd_Out_column+0
	MOVLW      ?lstr16_incubadora_iot+0
	MOVWF      FARG_Lcd_Out_text+0
	CALL       _Lcd_Out+0
;incubadora_iot.c,179 :: 		break;
	GOTO       L_lcd_Print42
;incubadora_iot.c,181 :: 		}//fin switch
L_lcd_Print41:
	MOVF       FARG_lcd_Print_screen+0, 0
	XORLW      73
	BTFSC      STATUS+0, 2
	GOTO       L_lcd_Print43
	MOVF       FARG_lcd_Print_screen+0, 0
	XORLW      69
	BTFSC      STATUS+0, 2
	GOTO       L_lcd_Print44
	MOVF       FARG_lcd_Print_screen+0, 0
	XORLW      67
	BTFSC      STATUS+0, 2
	GOTO       L_lcd_Print45
	MOVF       FARG_lcd_Print_screen+0, 0
	XORLW      84
	BTFSC      STATUS+0, 2
	GOTO       L_lcd_Print46
	MOVF       FARG_lcd_Print_screen+0, 0
	XORLW      72
	BTFSC      STATUS+0, 2
	GOTO       L_lcd_Print47
	MOVF       FARG_lcd_Print_screen+0, 0
	XORLW      88
	BTFSC      STATUS+0, 2
	GOTO       L_lcd_Print48
	GOTO       L_lcd_Print49
L_lcd_Print42:
;incubadora_iot.c,182 :: 		}//fin lcdPrint
L_end_lcd_Print:
	RETURN
; end of _lcd_Print

_main:

;incubadora_iot.c,185 :: 		void main() {
;incubadora_iot.c,186 :: 		ANSEL =0X00;
	CLRF       ANSEL+0
;incubadora_iot.c,187 :: 		ANSELH = 0X00;
	CLRF       ANSELH+0
;incubadora_iot.c,188 :: 		TRISD=0XE0;
	MOVLW      224
	MOVWF      TRISD+0
;incubadora_iot.c,189 :: 		TRISA=0X00;
	CLRF       TRISA+0
;incubadora_iot.c,190 :: 		PORTA=0X00;
	CLRF       PORTA+0
;incubadora_iot.c,191 :: 		PORTD=0x01;
	MOVLW      1
	MOVWF      PORTD+0
;incubadora_iot.c,192 :: 		Lcd_Init();
	CALL       _Lcd_Init+0
;incubadora_iot.c,193 :: 		Lcd_Cmd(_LCD_CURSOR_OFF);
	MOVLW      12
	MOVWF      FARG_Lcd_Cmd_out_char+0
	CALL       _Lcd_Cmd+0
;incubadora_iot.c,196 :: 		while(1){
L_main50:
;incubadora_iot.c,198 :: 		if(read_dth11(1)==1){
	MOVLW      1
	MOVWF      FARG_read_dth11_sensor+0
	CALL       _read_dth11+0
	MOVF       R0+0, 0
	XORLW      1
	BTFSS      STATUS+0, 2
	GOTO       L_main52
;incubadora_iot.c,199 :: 		lcd_Print('I');
	MOVLW      73
	MOVWF      FARG_lcd_Print_screen+0
	CALL       _lcd_Print+0
;incubadora_iot.c,200 :: 		}else {
	GOTO       L_main53
L_main52:
;incubadora_iot.c,201 :: 		lcd_Print('E');
	MOVLW      69
	MOVWF      FARG_lcd_Print_screen+0
	CALL       _lcd_Print+0
;incubadora_iot.c,202 :: 		buzzer(200,3);
	MOVLW      200
	MOVWF      FARG_buzzer_millis+0
	CLRF       FARG_buzzer_millis+1
	MOVLW      3
	MOVWF      FARG_buzzer_repeticiones+0
	MOVLW      0
	MOVWF      FARG_buzzer_repeticiones+1
	CALL       _buzzer+0
;incubadora_iot.c,203 :: 		delay_ms(500);
	MOVLW      3
	MOVWF      R11+0
	MOVLW      138
	MOVWF      R12+0
	MOVLW      85
	MOVWF      R13+0
L_main54:
	DECFSZ     R13+0, 1
	GOTO       L_main54
	DECFSZ     R12+0, 1
	GOTO       L_main54
	DECFSZ     R11+0, 1
	GOTO       L_main54
	NOP
	NOP
;incubadora_iot.c,204 :: 		}
L_main53:
;incubadora_iot.c,211 :: 		} //fin while
	GOTO       L_main50
;incubadora_iot.c,212 :: 		}//fin main
L_end_main:
	GOTO       $+0
; end of _main
